target datalayout = "e-m:e-p270:32:32-p271:32:32-p272:64:64-i64:64-i128:128-f80:128-n8:16:32:64-S128"
target triple = "x86_64-pc-linux-gnu"

%class.Klass = type <{ %class.Metadata, i32, i32, i32, i32, ptr, ptr, ptr, [8 x ptr], %class.OopHandle, ptr, ptr, ptr, ptr, ptr, i32, %class.AccessFlags, i64, i64, i8, i8, i16, i16, [2 x i8], i32, [4 x i8] }>
%class.Metadata = type { ptr }
%class.OopHandle = type { ptr }
%class.AccessFlags = type { i32 }
%class.Phase = type { i32, ptr }
%class.GraphKit = type <{ ptr, %class.Phase, ptr, ptr, ptr, ptr, i32, [4 x i8], ptr, ptr, i32, [4 x i8] }>
%"class.Compile::AliasType" = type { i32, ptr, ptr, ptr, i8, i32 }
%class.anon.43 = type { i8 }

@_ZN10TypeRawPtr7NOTNULLE = external global ptr, align 8
@_ZN11TypeInstPtr6MIRRORE = external global ptr, align 8

; Function Attrs: mustprogress nounwind uwtable
define linkonce_odr hidden noundef i32 @_ZNK7Compile9AliasType5indexEv(ptr noundef nonnull align 8 dereferenceable(40) %0) #1 comdat align 2 {
  %2 = alloca ptr, align 8
  store ptr %0, ptr %2, align 8
  %3 = load ptr, ptr %2, align 8
  %4 = getelementptr inbounds %"class.Compile::AliasType", ptr %3, i32 0, i32 0
  %5 = load i32, ptr %4, align 8
  ret i32 %5
}

; Function Attrs: mustprogress nounwind uwtable
define linkonce_odr hidden noundef ptr @_ZN7Compile10alias_typeEPK7TypePtrP7ciField(ptr noundef nonnull align 8 dereferenceable(2316) %0, ptr noundef %1, ptr noundef %2) #1 comdat align 2 {
  %4 = alloca ptr, align 8
  %5 = alloca ptr, align 8
  %6 = alloca ptr, align 8
  store ptr %0, ptr %4, align 8
  store ptr %1, ptr %5, align 8
  store ptr %2, ptr %6, align 8
  %7 = load ptr, ptr %4, align 8
  %8 = load ptr, ptr %5, align 8
  %9 = load ptr, ptr %6, align 8
  %10 = call noundef ptr @_ZN7Compile15find_alias_typeEPK7TypePtrbP7ciField(ptr noundef nonnull align 8 dereferenceable(2316) %7, ptr noundef %8, i1 noundef zeroext false, ptr noundef %9)
  ret ptr %10
}

; Function Attrs: mustprogress nounwind uwtable
define linkonce_odr hidden noundef i32 @_ZN7Compile15get_alias_indexEPK7TypePtr(ptr noundef nonnull align 8 dereferenceable(2316) %0, ptr noundef %1) #1 comdat align 2 {
  %3 = alloca ptr, align 8
  %4 = alloca ptr, align 8
  store ptr %0, ptr %3, align 8
  store ptr %1, ptr %4, align 8
  %5 = load ptr, ptr %3, align 8
  %6 = load ptr, ptr %4, align 8
  %7 = call noundef ptr @_ZN7Compile10alias_typeEPK7TypePtrP7ciField(ptr noundef nonnull align 8 dereferenceable(2316) %5, ptr noundef %6, ptr noundef null)
  %8 = call noundef i32 @_ZNK7Compile9AliasType5indexEv(ptr noundef nonnull align 8 dereferenceable(40) %7)
  ret i32 %8
}

; Function Attrs: mustprogress nounwind uwtable
define linkonce_odr hidden noundef ptr @_ZN8GraphKit9make_loadEP4NodeS1_PK4Type9BasicTypePK7TypePtrN7MemNode6MemOrdEN8LoadNode17ControlDependencyEbbbbh(ptr noundef nonnull align 8 dereferenceable(84) %0, ptr noundef %1, ptr noundef %2, ptr noundef %3, i8 noundef zeroext %4, ptr noundef %5, i32 noundef %6, i32 noundef %7, i1 noundef zeroext %8, i1 noundef zeroext %9, i1 noundef zeroext %10, i1 noundef zeroext %11, i8 noundef zeroext %12) #1 comdat align 2 {
  %14 = alloca ptr, align 8
  %15 = alloca ptr, align 8
  %16 = alloca ptr, align 8
  %17 = alloca ptr, align 8
  %18 = alloca i8, align 1
  %19 = alloca ptr, align 8
  %20 = alloca i32, align 4
  %21 = alloca i32, align 4
  %22 = alloca i8, align 1
  %23 = alloca i8, align 1
  %24 = alloca i8, align 1
  %25 = alloca i8, align 1
  %26 = alloca i8, align 1
  store ptr %0, ptr %14, align 8
  store ptr %1, ptr %15, align 8
  store ptr %2, ptr %16, align 8
  store ptr %3, ptr %17, align 8
  store i8 %4, ptr %18, align 1
  store ptr %5, ptr %19, align 8
  store i32 %6, ptr %20, align 4
  store i32 %7, ptr %21, align 4
  %27 = zext i1 %8 to i8
  store i8 %27, ptr %22, align 1
  %28 = zext i1 %9 to i8
  store i8 %28, ptr %23, align 1
  %29 = zext i1 %10 to i8
  store i8 %29, ptr %24, align 1
  %30 = zext i1 %11 to i8
  store i8 %30, ptr %25, align 1
  store i8 %12, ptr %26, align 1
  %31 = load ptr, ptr %14, align 8
  %32 = load ptr, ptr %15, align 8
  %33 = load ptr, ptr %16, align 8
  %34 = load ptr, ptr %17, align 8
  %35 = load i8, ptr %18, align 1
  %36 = getelementptr inbounds i8, ptr %31, i64 8
  %37 = getelementptr inbounds %class.Phase, ptr %36, i32 0, i32 1
  %38 = load ptr, ptr %37, align 8
  %39 = load ptr, ptr %19, align 8
  %40 = call noundef i32 @_ZN7Compile15get_alias_indexEPK7TypePtr(ptr noundef nonnull align 8 dereferenceable(2316) %38, ptr noundef %39)
  %41 = load i32, ptr %20, align 4
  %42 = load i32, ptr %21, align 4
  %43 = load i8, ptr %22, align 1
  %44 = trunc i8 %43 to i1
  %45 = load i8, ptr %23, align 1
  %46 = trunc i8 %45 to i1
  %47 = load i8, ptr %24, align 1
  %48 = trunc i8 %47 to i1
  %49 = load i8, ptr %25, align 1
  %50 = trunc i8 %49 to i1
  %51 = load i8, ptr %26, align 1
  %52 = call noundef ptr @_ZN8GraphKit9make_loadEP4NodeS1_PK4Type9BasicTypeiN7MemNode6MemOrdEN8LoadNode17ControlDependencyEbbbbh(ptr noundef nonnull align 8 dereferenceable(84) %31, ptr noundef %32, ptr noundef %33, ptr noundef %34, i8 noundef zeroext %35, i32 noundef %40, i32 noundef %41, i32 noundef %42, i1 noundef zeroext %44, i1 noundef zeroext %46, i1 noundef zeroext %48, i1 noundef zeroext %50, i8 noundef zeroext %51)
  ret ptr %52
}

; Function Attrs: mustprogress nounwind uwtable
define linkonce_odr hidden noundef ptr @_ZNK4Type6is_ptrEv(ptr noundef nonnull align 8 dereferenceable(20) %0) #1 comdat align 2 {
  %2 = alloca ptr, align 8
  store ptr %0, ptr %2, align 8
  %3 = load ptr, ptr %2, align 8
  ret ptr %3
}

; Function Attrs: mustprogress nounwind uwtable
define linkonce_odr hidden noundef ptr @_ZNK8GraphKit7longconEl(ptr noundef nonnull align 8 dereferenceable(84) %0, i64 noundef %1) #1 comdat align 2 {
  %3 = alloca ptr, align 8
  %4 = alloca i64, align 8
  store ptr %0, ptr %3, align 8
  store i64 %1, ptr %4, align 8
  %5 = load ptr, ptr %3, align 8
  %6 = getelementptr inbounds %class.GraphKit, ptr %5, i32 0, i32 3
  %7 = load ptr, ptr %6, align 8
  %8 = load i64, ptr %4, align 8
  %9 = call noundef ptr @_ZN11PhaseValues7longconEl(ptr noundef nonnull align 8 dereferenceable(2400) %7, i64 noundef %8)
  ret ptr %9
}

; Function Attrs: mustprogress nounwind uwtable
define linkonce_odr hidden noundef i32 @_Z11in_ByteSizei(i32 noundef %0) #1 comdat {
  %2 = alloca i32, align 4
  store i32 %0, ptr %2, align 4
  %3 = load i32, ptr %2, align 4
  ret i32 %3
}

; Function Attrs: mustprogress nounwind uwtable
define linkonce_odr hidden noundef i64 @_ZZN5Klass18java_mirror_offsetEvENKUlvE_clEv(ptr noundef nonnull align 1 dereferenceable(1) %0) #1 comdat align 2 {
  %2 = alloca ptr, align 8
  %3 = alloca [200 x i8], align 16
  %4 = alloca ptr, align 8
  %5 = alloca ptr, align 8
  store ptr %0, ptr %2, align 8
  %6 = getelementptr inbounds [200 x i8], ptr %3, i64 0, i64 0
  store ptr %6, ptr %4, align 8
  %7 = load ptr, ptr %4, align 8
  %8 = getelementptr inbounds %class.Klass, ptr %7, i32 0, i32 9
  store ptr %8, ptr %5, align 8
  %9 = load ptr, ptr %5, align 8
  %10 = getelementptr inbounds [200 x i8], ptr %3, i64 0, i64 0
  %11 = ptrtoint ptr %9 to i64
  %12 = ptrtoint ptr %10 to i64
  %13 = sub i64 %11, %12
  ret i64 %13
}

; Function Attrs: mustprogress nounwind uwtable
define linkonce_odr hidden noundef ptr @_ZN8GraphKit9make_loadEP4NodeS1_PK4Type9BasicTypeN7MemNode6MemOrdEN8LoadNode17ControlDependencyEbbbbh(ptr noundef nonnull align 8 dereferenceable(84) %0, ptr noundef %1, ptr noundef %2, ptr noundef %3, i8 noundef zeroext %4, i32 noundef %5, i32 noundef %6, i1 noundef zeroext %7, i1 noundef zeroext %8, i1 noundef zeroext %9, i1 noundef zeroext %10, i8 noundef zeroext %11) #1 comdat align 2 {
  %13 = alloca ptr, align 8
  %14 = alloca ptr, align 8
  %15 = alloca ptr, align 8
  %16 = alloca ptr, align 8
  %17 = alloca i8, align 1
  %18 = alloca i32, align 4
  %19 = alloca i32, align 4
  %20 = alloca i8, align 1
  %21 = alloca i8, align 1
  %22 = alloca i8, align 1
  %23 = alloca i8, align 1
  %24 = alloca i8, align 1
  store ptr %0, ptr %13, align 8
  store ptr %1, ptr %14, align 8
  store ptr %2, ptr %15, align 8
  store ptr %3, ptr %16, align 8
  store i8 %4, ptr %17, align 1
  store i32 %5, ptr %18, align 4
  store i32 %6, ptr %19, align 4
  %25 = zext i1 %7 to i8
  store i8 %25, ptr %20, align 1
  %26 = zext i1 %8 to i8
  store i8 %26, ptr %21, align 1
  %27 = zext i1 %9 to i8
  store i8 %27, ptr %22, align 1
  %28 = zext i1 %10 to i8
  store i8 %28, ptr %23, align 1
  store i8 %11, ptr %24, align 1
  %29 = load ptr, ptr %13, align 8
  %30 = load ptr, ptr %14, align 8
  %31 = load ptr, ptr %15, align 8
  %32 = load ptr, ptr %16, align 8
  %33 = load i8, ptr %17, align 1
  %34 = load ptr, ptr %15, align 8
  %35 = load ptr, ptr %34, align 8
  %36 = getelementptr inbounds ptr, ptr %35, i64 5
  %37 = load ptr, ptr %36, align 8
  %38 = call noundef ptr %37(ptr noundef nonnull align 8 dereferenceable(52) %34)
  %39 = call noundef ptr @_ZNK4Type6is_ptrEv(ptr noundef nonnull align 8 dereferenceable(20) %38)
  %40 = load i32, ptr %18, align 4
  %41 = load i32, ptr %19, align 4
  %42 = load i8, ptr %20, align 1
  %43 = trunc i8 %42 to i1
  %44 = load i8, ptr %21, align 1
  %45 = trunc i8 %44 to i1
  %46 = load i8, ptr %22, align 1
  %47 = trunc i8 %46 to i1
  %48 = load i8, ptr %23, align 1
  %49 = trunc i8 %48 to i1
  %50 = load i8, ptr %24, align 1
  %51 = call noundef ptr @_ZN8GraphKit9make_loadEP4NodeS1_PK4Type9BasicTypePK7TypePtrN7MemNode6MemOrdEN8LoadNode17ControlDependencyEbbbbh(ptr noundef nonnull align 8 dereferenceable(84) %29, ptr noundef %30, ptr noundef %31, ptr noundef %32, i8 noundef zeroext %33, ptr noundef %39, i32 noundef %40, i32 noundef %41, i1 noundef zeroext %43, i1 noundef zeroext %45, i1 noundef zeroext %47, i1 noundef zeroext %49, i8 noundef zeroext %50)
  ret ptr %51
}

; Function Attrs: mustprogress nounwind uwtable
define linkonce_odr hidden noundef ptr @_ZN8GraphKit14basic_plus_adrEP4Nodel(ptr noundef nonnull align 8 dereferenceable(84) %0, ptr noundef %1, i64 noundef %2) #1 comdat align 2 {
  %4 = alloca ptr, align 8
  %5 = alloca ptr, align 8
  %6 = alloca i64, align 8
  store ptr %0, ptr %4, align 8
  store ptr %1, ptr %5, align 8
  store i64 %2, ptr %6, align 8
  %7 = load ptr, ptr %4, align 8
  %8 = load ptr, ptr %5, align 8
  %9 = load ptr, ptr %5, align 8
  %10 = load i64, ptr %6, align 8
  %11 = call noundef ptr @_ZNK8GraphKit7longconEl(ptr noundef nonnull align 8 dereferenceable(84) %7, i64 noundef %10)
  %12 = call noundef ptr @_ZN8GraphKit14basic_plus_adrEP4NodeS1_S1_(ptr noundef nonnull align 8 dereferenceable(84) %7, ptr noundef %8, ptr noundef %9, ptr noundef %11)
  ret ptr %12
}

; Function Attrs: mustprogress nounwind uwtable
define linkonce_odr hidden noundef i32 @_Z8in_bytes8ByteSize(i32 noundef %0) #1 comdat {
  %2 = alloca i32, align 4
  store i32 %0, ptr %2, align 4
  %3 = load i32, ptr %2, align 4
  ret i32 %3
}

; Function Attrs: mustprogress nounwind uwtable
define linkonce_odr hidden noundef i32 @_ZN5Klass18java_mirror_offsetEv() #1 comdat align 2 {
  %1 = alloca %class.anon.43, align 1
  %2 = call noundef i64 @_ZZN5Klass18java_mirror_offsetEvENKUlvE_clEv(ptr noundef nonnull align 1 dereferenceable(1) %1)
  %3 = trunc i64 %2 to i32
  %4 = call noundef i32 @_Z11in_ByteSizei(i32 noundef %3)
  ret i32 %4
}

; Function Attrs: mustprogress nounwind uwtable
define hidden noundef ptr @_ZN14LibraryCallKit22load_mirror_from_klassEP4Node(ptr noundef nonnull align 8 dereferenceable(108) %0, ptr noundef %1) #1 align 2 {
  %3 = alloca ptr, align 8
  %4 = alloca ptr, align 8
  %5 = alloca ptr, align 8
  %6 = alloca ptr, align 8
  store ptr %0, ptr %3, align 8
  store ptr %1, ptr %4, align 8
  %7 = load ptr, ptr %3, align 8
  %8 = load ptr, ptr %4, align 8
  %9 = call noundef i32 @_ZN5Klass18java_mirror_offsetEv()
  %10 = call noundef i32 @_Z8in_bytes8ByteSize(i32 noundef %9)
  %11 = sext i32 %10 to i64
  %12 = call noundef ptr @_ZN8GraphKit14basic_plus_adrEP4Nodel(ptr noundef nonnull align 8 dereferenceable(84) %7, ptr noundef %8, i64 noundef %11)
  store ptr %12, ptr %5, align 8
  %13 = load ptr, ptr %5, align 8
  %14 = load ptr, ptr @_ZN10TypeRawPtr7NOTNULLE, align 8
  %15 = call noundef ptr @_ZN8GraphKit9make_loadEP4NodeS1_PK4Type9BasicTypeN7MemNode6MemOrdEN8LoadNode17ControlDependencyEbbbbh(ptr noundef nonnull align 8 dereferenceable(84) %7, ptr noundef null, ptr noundef %13, ptr noundef %14, i8 noundef zeroext 15, i32 noundef 0, i32 noundef 2, i1 noundef zeroext false, i1 noundef zeroext false, i1 noundef zeroext false, i1 noundef zeroext false, i8 noundef zeroext 0)
  store ptr %15, ptr %6, align 8
  %16 = load ptr, ptr %6, align 8
  %17 = load ptr, ptr @_ZN11TypeInstPtr6MIRRORE, align 8
  %18 = call noundef ptr @_ZN8GraphKit11access_loadEP4NodePK4Type9BasicTypem(ptr noundef nonnull align 8 dereferenceable(84) %7, ptr noundef %16, ptr noundef %17, i8 noundef zeroext 12, i64 noundef 524288)
  ret ptr %18
}