; Function Attrs: mustprogress nounwind uwtable
define hidden noundef ptr @_ZN14LibraryCallKit22load_mirror_from_klassEP4Node(ptr noundef nonnull align 8 dereferenceable(108) %0, ptr noundef %1) local_unnamed_addr #0 align 2 {
  %3 = getelementptr inbounds i8, ptr %0, i64 32
  %4 = load ptr, ptr %3, align 8
  %5 = tail call noundef ptr @_ZN11PhaseValues7longconEl(ptr noundef nonnull align 8 dereferenceable(2400) %4, i64 noundef 112) #13
  %6 = tail call noundef ptr @_ZN8GraphKit14basic_plus_adrEP4NodeS1_S1_(ptr noundef nonnull align 8 dereferenceable(84) %0, ptr noundef %1, ptr noundef %1, ptr noundef %5) #13
  %7 = load ptr, ptr @_ZN10TypeRawPtr7NOTNULLE, align 8
  %8 = load ptr, ptr %6, align 8
  %9 = getelementptr inbounds i8, ptr %8, i64 40
  %10 = load ptr, ptr %9, align 8
  %11 = tail call noundef ptr %10(ptr noundef nonnull align 8 dereferenceable(52) %6) #13
  %12 = getelementptr inbounds i8, ptr %0, i64 16
  %13 = load ptr, ptr %12, align 8
  %14 = tail call noundef ptr @_ZN7Compile15find_alias_typeEPK7TypePtrbP7ciField(ptr noundef nonnull align 8 dereferenceable(2316) %13, ptr noundef %11, i1 noundef zeroext false, ptr noundef null) #13
  %15 = load i32, ptr %14, align 8
  %16 = tail call noundef ptr @_ZN8GraphKit9make_loadEP4NodeS1_PK4Type9BasicTypeiN7MemNode6MemOrdEN8LoadNode17ControlDependencyEbbbbh(ptr noundef nonnull align 8 dereferenceable(84) %0, ptr noundef null, ptr noundef nonnull %6, ptr noundef %7, i8 noundef zeroext 15, i32 noundef %15, i32 noundef 0, i32 noundef 2, i1 noundef zeroext false, i1 noundef zeroext false, i1 noundef zeroext false, i1 noundef zeroext false, i8 noundef zeroext 0) #13
  %17 = load ptr, ptr @_ZN11TypeInstPtr6MIRRORE, align 8
  %18 = tail call noundef ptr @_ZN8GraphKit11access_loadEP4NodePK4Type9BasicTypem(ptr noundef nonnull align 8 dereferenceable(84) %0, ptr noundef %16, ptr noundef %17, i8 noundef zeroext 12, i64 noundef 524288) #13
  ret ptr %18
}